target datalayout = "e-m:e-p270:32:32-p271:32:32-p272:64:64-i64:64-i128:128-f80:128-n8:16:32:64-S128"
target triple = "x86_64-pc-linux-gnu"

%class.Klass = type <{ %class.Metadata, i32, i32, i32, i32, ptr, ptr, ptr, [8 x ptr], %class.OopHandle, ptr, ptr, ptr, ptr, ptr, i32, %class.AccessFlags, i64, i64, i8, i8, i16, i16, [2 x i8], i32, [4 x i8] }>
%class.Metadata = type { ptr }
%class.OopHandle = type { ptr }
%class.AccessFlags = type { i32 }
%class.Klass.base = type <{ %class.Metadata, i32, i32, i32, i32, ptr, ptr, ptr, [8 x ptr], %class.OopHandle, ptr, ptr, ptr, ptr, ptr, i32, %class.AccessFlags, i64, i64, i8, i8, i16, i16, [2 x i8], i32 }>
%class.ObjArrayKlass = type { %class.ArrayKlass, ptr, ptr }
%class.ArrayKlass = type { %class.Klass.base, i32, ptr, ptr }

; Function Attrs: mustprogress nounwind uwtable
define linkonce_odr hidden noundef ptr @_ZN13InstanceKlass4castEPK5Klass(ptr noundef %0) #1 comdat align 2 {
  %2 = alloca ptr, align 8
  store ptr %0, ptr %2, align 8
  %3 = load ptr, ptr %2, align 8
  ret ptr %3
}

; Function Attrs: mustprogress nounwind uwtable
define linkonce_odr hidden noundef ptr @_ZN13ObjArrayKlass4castEPK5Klass(ptr noundef %0) #1 comdat align 2 {
  %2 = alloca ptr, align 8
  store ptr %0, ptr %2, align 8
  %3 = load ptr, ptr %2, align 8
  ret ptr %3
}

; Function Attrs: mustprogress nounwind uwtable
define linkonce_odr hidden noundef ptr @_ZN13InstanceKlass4castEP5Klass(ptr noundef %0) #1 comdat align 2 {
  %2 = alloca ptr, align 8
  store ptr %0, ptr %2, align 8
  %3 = load ptr, ptr %2, align 8
  %4 = call noundef ptr @_ZN13InstanceKlass4castEPK5Klass(ptr noundef %3)
  ret ptr %4
}

; Function Attrs: mustprogress nounwind uwtable
define linkonce_odr hidden noundef zeroext i1 @_ZNK5Klass17is_instance_klassEv(ptr noundef nonnull align 8 dereferenceable(196) %0) #1 comdat align 2 {
  %2 = alloca ptr, align 8
  store ptr %0, ptr %2, align 8
  %3 = load ptr, ptr %2, align 8
  %4 = getelementptr inbounds %class.Klass, ptr %3, i32 0, i32 2
  %5 = load i32, ptr %4, align 4
  %6 = icmp sle i32 %5, 4
  ret i1 %6
}

; Function Attrs: mustprogress nounwind uwtable
define linkonce_odr hidden noundef ptr @_ZNK13ObjArrayKlass12bottom_klassEv(ptr noundef nonnull align 8 dereferenceable(232) %0) #1 comdat align 2 {
  %2 = alloca ptr, align 8
  store ptr %0, ptr %2, align 8
  %3 = load ptr, ptr %2, align 8
  %4 = getelementptr inbounds %class.ObjArrayKlass, ptr %3, i32 0, i32 2
  %5 = load ptr, ptr %4, align 8
  ret ptr %5
}

; Function Attrs: mustprogress nounwind uwtable
define linkonce_odr hidden noundef ptr @_ZN13ObjArrayKlass4castEP5Klass(ptr noundef %0) #1 comdat align 2 {
  %2 = alloca ptr, align 8
  store ptr %0, ptr %2, align 8
  %3 = load ptr, ptr %2, align 8
  %4 = call noundef ptr @_ZN13ObjArrayKlass4castEPK5Klass(ptr noundef %3)
  ret ptr %4
}

; Function Attrs: mustprogress nounwind uwtable
define linkonce_odr hidden noundef zeroext i1 @_ZNK5Klass17is_objArray_klassEv(ptr noundef nonnull align 8 dereferenceable(196) %0) #1 comdat align 2 {
  %2 = alloca ptr, align 8
  store ptr %0, ptr %2, align 8
  %3 = load ptr, ptr %2, align 8
  %4 = getelementptr inbounds %class.Klass, ptr %3, i32 0, i32 2
  %5 = load i32, ptr %4, align 4
  %6 = icmp eq i32 %5, 6
  ret i1 %6
}

; Function Attrs: mustprogress nounwind uwtable
define hidden noundef zeroext i1 @_ZN12JVMCIRuntime25check_klass_accessibilityEP5KlassS1_(ptr noundef %0, ptr noundef %1) #1 align 2 {
  %3 = alloca i1, align 1
  %4 = alloca ptr, align 8
  %5 = alloca ptr, align 8
  %6 = alloca i32, align 4
  store ptr %0, ptr %4, align 8
  store ptr %1, ptr %5, align 8
  %7 = load ptr, ptr %4, align 8
  %8 = call noundef zeroext i1 @_ZNK5Klass17is_objArray_klassEv(ptr noundef nonnull align 8 dereferenceable(196) %7)
  br i1 %8, label %9, label %13

9:                                                ; preds = %2
  %10 = load ptr, ptr %4, align 8
  %11 = call noundef ptr @_ZN13ObjArrayKlass4castEP5Klass(ptr noundef %10)
  %12 = call noundef ptr @_ZNK13ObjArrayKlass12bottom_klassEv(ptr noundef nonnull align 8 dereferenceable(232) %11)
  store ptr %12, ptr %4, align 8
  br label %13

13:                                               ; preds = %9, %2
  %14 = load ptr, ptr %4, align 8
  %15 = call noundef zeroext i1 @_ZNK5Klass17is_instance_klassEv(ptr noundef nonnull align 8 dereferenceable(196) %14)
  br i1 %15, label %17, label %16

16:                                               ; preds = %13
  store i1 true, ptr %3, align 1
  br label %35

17:                                               ; preds = %13
  %18 = load ptr, ptr %5, align 8
  %19 = call noundef zeroext i1 @_ZNK5Klass17is_objArray_klassEv(ptr noundef nonnull align 8 dereferenceable(196) %18)
  br i1 %19, label %20, label %24

20:                                               ; preds = %17
  %21 = load ptr, ptr %5, align 8
  %22 = call noundef ptr @_ZN13ObjArrayKlass4castEP5Klass(ptr noundef %21)
  %23 = call noundef ptr @_ZNK13ObjArrayKlass12bottom_klassEv(ptr noundef nonnull align 8 dereferenceable(232) %22)
  store ptr %23, ptr %5, align 8
  br label %24

24:                                               ; preds = %20, %17
  %25 = load ptr, ptr %5, align 8
  %26 = call noundef zeroext i1 @_ZNK5Klass17is_instance_klassEv(ptr noundef nonnull align 8 dereferenceable(196) %25)
  br i1 %26, label %27, label %34

27:                                               ; preds = %24
  %28 = load ptr, ptr %4, align 8
  %29 = load ptr, ptr %5, align 8
  %30 = call noundef ptr @_ZN13InstanceKlass4castEP5Klass(ptr noundef %29)
  %31 = call noundef i32 @_ZN10Reflection19verify_class_accessEPK5KlassPK13InstanceKlassb(ptr noundef %28, ptr noundef %30, i1 noundef zeroext true)
  store i32 %31, ptr %6, align 4
  %32 = load i32, ptr %6, align 4
  %33 = icmp eq i32 %32, 0
  store i1 %33, ptr %3, align 1
  br label %35

34:                                               ; preds = %24
  store i1 true, ptr %3, align 1
  br label %35

35:                                               ; preds = %34, %27, %16
  %36 = load i1, ptr %3, align 1
  ret i1 %36
}