; Function Attrs: mustprogress nounwind uwtable
define hidden noundef zeroext i1 @_ZN12JVMCIRuntime25check_klass_accessibilityEP5KlassS1_(ptr noundef %0, ptr noundef %1) local_unnamed_addr #0 align 2 {
  %3 = getelementptr inbounds i8, ptr %0, i64 12
  %4 = load i32, ptr %3, align 4
  %5 = icmp eq i32 %4, 6
  br i1 %5, label %6, label %9

6:                                                ; preds = %2
  %7 = getelementptr inbounds i8, ptr %0, i64 224
  %8 = load ptr, ptr %7, align 8
  %.phi.trans.insert = getelementptr inbounds i8, ptr %8, i64 12
  %.pre = load i32, ptr %.phi.trans.insert, align 4
  br label %9

9:                                                ; preds = %6, %2
  %10 = phi i32 [ %.pre, %6 ], [ %4, %2 ]
  %.010 = phi ptr [ %8, %6 ], [ %0, %2 ]
  %11 = icmp slt i32 %10, 5
  br i1 %11, label %12, label %25

12:                                               ; preds = %9
  %13 = getelementptr inbounds i8, ptr %1, i64 12
  %14 = load i32, ptr %13, align 4
  %15 = icmp eq i32 %14, 6
  br i1 %15, label %16, label %19

16:                                               ; preds = %12
  %17 = getelementptr inbounds i8, ptr %1, i64 224
  %18 = load ptr, ptr %17, align 8
  %.phi.trans.insert11 = getelementptr inbounds i8, ptr %18, i64 12
  %.pre12 = load i32, ptr %.phi.trans.insert11, align 4
  br label %19

19:                                               ; preds = %16, %12
  %20 = phi i32 [ %.pre12, %16 ], [ %14, %12 ]
  %.09 = phi ptr [ %18, %16 ], [ %1, %12 ]
  %21 = icmp slt i32 %20, 5
  br i1 %21, label %22, label %25

22:                                               ; preds = %19
  %23 = tail call noundef i32 @_ZN10Reflection19verify_class_accessEPK5KlassPK13InstanceKlassb(ptr noundef nonnull %.010, ptr noundef nonnull %.09, i1 noundef zeroext true) #15
  %24 = icmp eq i32 %23, 0
  br label %25

25:                                               ; preds = %19, %9, %22
  %.0 = phi i1 [ %24, %22 ], [ true, %9 ], [ true, %19 ]
  ret i1 %.0
}